target datalayout = "e-m:e-p270:32:32-p271:32:32-p272:64:64-i64:64-i128:128-f80:128-n8:16:32:64-S128"
target triple = "x86_64-pc-linux-gnu"

%struct.yy_buffer_state = type { ptr, ptr, ptr, i32, i32, i32, i32, i32, i32, i32, i32, i32 }

@_ZL15yy_buffer_stack = internal global ptr null, align 8
@_ZL19yy_buffer_stack_top = internal global i64 0, align 8

; Function Attrs: mustprogress nounwind uwtable
define void @_Z23frontend_verilog_yyfreePv(ptr noundef %0) #4 {
  %2 = alloca ptr, align 8
  store ptr %0, ptr %2, align 8, !tbaa !282
  %3 = load ptr, ptr %2, align 8, !tbaa !282
  call void @free(ptr noundef %3) #3
  ret void
}

; Function Attrs: mustprogress uwtable
define void @_Z33frontend_verilog_yy_delete_bufferP15yy_buffer_state(ptr noundef %0) #5 {
  %2 = alloca ptr, align 8
  store ptr %0, ptr %2, align 8, !tbaa !35
  %3 = load ptr, ptr %2, align 8, !tbaa !35
  %4 = icmp ne ptr %3, null
  br i1 %4, label %6, label %5

5:                                                ; preds = %1
  br label %34

6:                                                ; preds = %1
  %7 = load ptr, ptr %2, align 8, !tbaa !35
  %8 = load ptr, ptr @_ZL15yy_buffer_stack, align 8, !tbaa !30
  %9 = icmp ne ptr %8, null
  br i1 %9, label %10, label %15

10:                                               ; preds = %6
  %11 = load ptr, ptr @_ZL15yy_buffer_stack, align 8, !tbaa !30
  %12 = load i64, ptr @_ZL19yy_buffer_stack_top, align 8, !tbaa !33
  %13 = getelementptr inbounds nuw ptr, ptr %11, i64 %12
  %14 = load ptr, ptr %13, align 8, !tbaa !35
  br label %16

15:                                               ; preds = %6
  br label %16

16:                                               ; preds = %15, %10
  %17 = phi ptr [ %14, %10 ], [ null, %15 ]
  %18 = icmp eq ptr %7, %17
  br i1 %18, label %19, label %23

19:                                               ; preds = %16
  %20 = load ptr, ptr @_ZL15yy_buffer_stack, align 8, !tbaa !30
  %21 = load i64, ptr @_ZL19yy_buffer_stack_top, align 8, !tbaa !33
  %22 = getelementptr inbounds nuw ptr, ptr %20, i64 %21
  store ptr null, ptr %22, align 8, !tbaa !35
  br label %23

23:                                               ; preds = %19, %16
  %24 = load ptr, ptr %2, align 8, !tbaa !35
  %25 = getelementptr inbounds nuw %struct.yy_buffer_state, ptr %24, i32 0, i32 5
  %26 = load i32, ptr %25, align 8, !tbaa !260
  %27 = icmp ne i32 %26, 0
  br i1 %27, label %28, label %32

28:                                               ; preds = %23
  %29 = load ptr, ptr %2, align 8, !tbaa !35
  %30 = getelementptr inbounds nuw %struct.yy_buffer_state, ptr %29, i32 0, i32 1
  %31 = load ptr, ptr %30, align 8, !tbaa !257
  call void @_Z23frontend_verilog_yyfreePv(ptr noundef %31)
  br label %32

32:                                               ; preds = %28, %23
  %33 = load ptr, ptr %2, align 8, !tbaa !35
  call void @_Z23frontend_verilog_yyfreePv(ptr noundef %33)
  br label %34

34:                                               ; preds = %32, %5
  ret void
}